; Function Attrs: mustprogress uwtable
define void @_ZN9grpc_core12BatchBuilder5Batch11PerformWithENS0_6TargetE(ptr noundef nonnull align 8 dereferenceable(120) %this, ptr nocapture noundef readonly byval(%"struct.grpc_core::BatchBuilder::Target") align 8 %target) local_unnamed_addr #4 align 2 {
entry:
  %0 = load ptr, ptr %target, align 8
  %vtable = load ptr, ptr %0, align 8
  %vfn = getelementptr inbounds i8, ptr %vtable, i64 24
  %1 = load ptr, ptr %vfn, align 8
  %call = tail call noundef ptr %1(ptr noundef nonnull align 8 dereferenceable(8) %0)
  %stream = getelementptr inbounds i8, ptr %target, i64 8
  %2 = load ptr, ptr %stream, align 8
  %vtable2 = load ptr, ptr %call, align 8
  %vfn3 = getelementptr inbounds i8, ptr %vtable2, i64 24
  %3 = load ptr, ptr %vfn3, align 8
  tail call void %3(ptr noundef nonnull align 8 dereferenceable(8) %call, ptr noundef %2, ptr noundef nonnull %this)
  ret void
}